; Function Attrs: nounwind uwtable
define ptr @l_Lean_ScopedEnvExtension_add___rarg___lambda__2(ptr noundef %0, ptr noundef %1, ptr noundef %2, i8 noundef zeroext %3, ptr noundef %4) local_unnamed_addr #2 {
  %6 = getelementptr inbounds nuw i8, ptr %0, i64 16
  %7 = load ptr, ptr %6, align 8, !tbaa !9
  %8 = ptrtoint ptr %7 to i64
  %9 = and i64 %8, 1
  %.not = icmp eq i64 %9, 0
  br i1 %.not, label %10, label %lean_inc.exit

10:                                               ; preds = %5
  %.val.i = load i32, ptr %7, align 4, !tbaa !4
  %11 = icmp sgt i32 %.val.i, 0
  br i1 %11, label %12, label %14, !prof !11

12:                                               ; preds = %10
  %13 = add nuw i32 %.val.i, 1
  store i32 %13, ptr %7, align 4, !tbaa !4
  br label %lean_inc.exit

14:                                               ; preds = %10
  %.not.i14 = icmp eq i32 %.val.i, 0
  br i1 %.not.i14, label %lean_inc.exit, label %15

15:                                               ; preds = %14
  tail call void @lean_inc_ref_cold(ptr noundef nonnull %7) #7
  br label %lean_inc.exit

lean_inc.exit:                                    ; preds = %15, %14, %12, %5
  %16 = ptrtoint ptr %0 to i64
  %17 = and i64 %16, 1
  %.not15 = icmp eq i64 %17, 0
  br i1 %.not15, label %18, label %lean_dec.exit

18:                                               ; preds = %lean_inc.exit
  %19 = load i32, ptr %0, align 4, !tbaa !4
  %20 = icmp sgt i32 %19, 1
  br i1 %20, label %21, label %23, !prof !11

21:                                               ; preds = %18
  %22 = add nsw i32 %19, -1
  store i32 %22, ptr %0, align 4, !tbaa !4
  br label %lean_dec.exit

23:                                               ; preds = %18
  %.not.i = icmp eq i32 %19, 0
  br i1 %.not.i, label %lean_dec.exit, label %24

24:                                               ; preds = %23
  tail call void @lean_dec_ref_cold(ptr noundef nonnull %0) #7
  br label %lean_dec.exit

lean_dec.exit:                                    ; preds = %24, %23, %21, %lean_inc.exit
  tail call void @lean_inc_heartbeat() #7
  %25 = tail call noalias ptr @mi_malloc_small(i64 noundef 56) #7
  %26 = icmp eq ptr %25, null
  br i1 %26, label %27, label %lean_alloc_closure.exit

27:                                               ; preds = %lean_dec.exit
  tail call void @lean_internal_panic_out_of_memory() #8
  unreachable

lean_alloc_closure.exit:                          ; preds = %lean_dec.exit
  %28 = zext i8 %3 to i64
  %29 = shl nuw nsw i64 %28, 1
  %30 = or disjoint i64 %29, 1
  %31 = inttoptr i64 %30 to ptr
  %32 = getelementptr inbounds nuw i8, ptr %25, i64 4
  store i32 1, ptr %25, align 4, !tbaa !4
  store i32 -184549320, ptr %32, align 4
  %33 = getelementptr inbounds nuw i8, ptr %25, i64 8
  store ptr @l_Lean_ScopedEnvExtension_add___rarg___lambda__1___boxed, ptr %33, align 8, !tbaa !9
  %34 = getelementptr inbounds nuw i8, ptr %25, i64 16
  store i16 5, ptr %34, align 8, !tbaa !14
  %35 = getelementptr inbounds nuw i8, ptr %25, i64 18
  store i16 4, ptr %35, align 2, !tbaa !14
  %36 = getelementptr inbounds nuw i8, ptr %25, i64 24
  store ptr %1, ptr %36, align 8, !tbaa !9
  %37 = getelementptr inbounds nuw i8, ptr %25, i64 32
  store ptr %2, ptr %37, align 8, !tbaa !9
  %38 = getelementptr inbounds nuw i8, ptr %25, i64 40
  store ptr %31, ptr %38, align 8, !tbaa !9
  %39 = getelementptr inbounds nuw i8, ptr %25, i64 48
  store ptr %4, ptr %39, align 8, !tbaa !9
  %40 = tail call ptr @lean_apply_1(ptr noundef %7, ptr noundef nonnull %25) #7
  ret ptr %40
}